target datalayout = "e-m:e-p270:32:32-p271:32:32-p272:64:64-i64:64-i128:128-f80:128-n8:16:32:64-S128"
target triple = "x86_64-pc-linux-gnu"

@.str.14 = private unnamed_addr constant [2 x i8] c"\0A\00", align 1
@.str.15 = private unnamed_addr constant [37 x i8] c"    opt_clean [options] [selection]\0A\00", align 1
@.str.16 = private unnamed_addr constant [78 x i8] c"This pass identifies wires and cells that are unused and removes them. Other\0A\00", align 1
@.str.17 = private unnamed_addr constant [78 x i8] c"passes often remove cells but leave the wires in the design or reconnect the\0A\00", align 1
@.str.18 = private unnamed_addr constant [80 x i8] c"wires but leave the old cells in the design. This pass can be used to clean up\0A\00", align 1
@.str.19 = private unnamed_addr constant [43 x i8] c"after the passes that do the actual work.\0A\00", align 1
@.str.20 = private unnamed_addr constant [75 x i8] c"This pass only operates on completely selected modules without processes.\0A\00", align 1
@.str.21 = private unnamed_addr constant [12 x i8] c"    -purge\0A\00", align 1
@.str.22 = private unnamed_addr constant [62 x i8] c"        also remove internal nets if they have a public name\0A\00", align 1

; Function Attrs: mustprogress uwtable
define internal void @_ZN12_GLOBAL__N_112OptCleanPass4helpEv(ptr noundef nonnull align 8 dereferenceable(104) %0) unnamed_addr #4 align 2 {
  %2 = alloca ptr, align 8
  store ptr %0, ptr %2, align 8
  call void (ptr, ...) @_ZN5Yosys3logEPKcz(ptr noundef @.str.14)
  call void (ptr, ...) @_ZN5Yosys3logEPKcz(ptr noundef @.str.15)
  call void (ptr, ...) @_ZN5Yosys3logEPKcz(ptr noundef @.str.14)
  call void (ptr, ...) @_ZN5Yosys3logEPKcz(ptr noundef @.str.16)
  call void (ptr, ...) @_ZN5Yosys3logEPKcz(ptr noundef @.str.17)
  call void (ptr, ...) @_ZN5Yosys3logEPKcz(ptr noundef @.str.18)
  call void (ptr, ...) @_ZN5Yosys3logEPKcz(ptr noundef @.str.19)
  call void (ptr, ...) @_ZN5Yosys3logEPKcz(ptr noundef @.str.14)
  call void (ptr, ...) @_ZN5Yosys3logEPKcz(ptr noundef @.str.20)
  call void (ptr, ...) @_ZN5Yosys3logEPKcz(ptr noundef @.str.14)
  call void (ptr, ...) @_ZN5Yosys3logEPKcz(ptr noundef @.str.21)
  call void (ptr, ...) @_ZN5Yosys3logEPKcz(ptr noundef @.str.22)
  call void (ptr, ...) @_ZN5Yosys3logEPKcz(ptr noundef @.str.14)
  ret void
}